target datalayout = "e-m:e-p270:32:32-p271:32:32-p272:64:64-i64:64-i128:128-f80:128-n8:16:32:64-S128"
target triple = "x86_64-pc-linux-gnu"

%struct.Wayland_KeymapBuilderState = type { ptr, ptr, i16 }

@WAYLAND_xkb_state_key_get_syms = external global ptr, align 8

; Function Attrs: nounwind uwtable
define internal void @Wayland_keymap_iter(ptr noundef %0, i32 noundef %1, ptr noundef %2) #0 {
  %4 = alloca ptr, align 8
  %5 = alloca i32, align 4
  %6 = alloca ptr, align 8
  %7 = alloca ptr, align 8
  %8 = alloca ptr, align 8
  %9 = alloca i32, align 4
  %10 = alloca i32, align 4
  %11 = alloca i32, align 4
  store ptr %0, ptr %4, align 8
  store i32 %1, ptr %5, align 4
  store ptr %2, ptr %6, align 8
  call void @llvm.lifetime.start.p0(i64 8, ptr %7) #10
  %12 = load ptr, ptr %6, align 8
  store ptr %12, ptr %7, align 8
  call void @llvm.lifetime.start.p0(i64 8, ptr %8) #10
  call void @llvm.lifetime.start.p0(i64 4, ptr %9) #10
  %13 = load i32, ptr %5, align 4
  %14 = sub i32 %13, 8
  %15 = call i32 @SDL_GetScancodeFromTable(i32 noundef 3, i32 noundef %14)
  store i32 %15, ptr %9, align 4
  %16 = load i32, ptr %9, align 4
  %17 = icmp eq i32 %16, 0
  br i1 %17, label %18, label %19

18:                                               ; preds = %3
  store i32 1, ptr %10, align 4
  br label %58

19:                                               ; preds = %3
  %20 = load ptr, ptr @WAYLAND_xkb_state_key_get_syms, align 8
  %21 = load ptr, ptr %7, align 8
  %22 = getelementptr inbounds nuw %struct.Wayland_KeymapBuilderState, ptr %21, i32 0, i32 1
  %23 = load ptr, ptr %22, align 8
  %24 = load i32, ptr %5, align 4
  %25 = call i32 %20(ptr noundef %23, i32 noundef %24, ptr noundef %8)
  %26 = icmp sgt i32 %25, 0
  br i1 %26, label %27, label %57

27:                                               ; preds = %19
  call void @llvm.lifetime.start.p0(i64 4, ptr %11) #10
  %28 = load ptr, ptr %8, align 8
  %29 = getelementptr inbounds i32, ptr %28, i64 0
  %30 = load i32, ptr %29, align 4
  %31 = load i32, ptr %5, align 4
  %32 = load ptr, ptr %7, align 8
  %33 = getelementptr inbounds nuw %struct.Wayland_KeymapBuilderState, ptr %32, i32 0, i32 2
  %34 = load i16, ptr %33, align 8
  %35 = call i32 @SDL_GetKeyCodeFromKeySym(i32 noundef %30, i32 noundef %31, i16 noundef zeroext %34)
  store i32 %35, ptr %11, align 4
  %36 = load i32, ptr %11, align 4
  %37 = icmp ne i32 %36, 0
  br i1 %37, label %48, label %38

38:                                               ; preds = %27
  %39 = load i32, ptr %9, align 4
  switch i32 %39, label %44 [
    i32 40, label %40
    i32 41, label %41
    i32 42, label %42
    i32 76, label %43
  ]

40:                                               ; preds = %38
  store i32 13, ptr %11, align 4
  br label %47

41:                                               ; preds = %38
  store i32 27, ptr %11, align 4
  br label %47

42:                                               ; preds = %38
  store i32 8, ptr %11, align 4
  br label %47

43:                                               ; preds = %38
  store i32 127, ptr %11, align 4
  br label %47

44:                                               ; preds = %38
  %45 = load i32, ptr %9, align 4
  %46 = or i32 %45, 1073741824
  store i32 %46, ptr %11, align 4
  br label %47

47:                                               ; preds = %44, %43, %42, %41, %40
  br label %48

48:                                               ; preds = %47, %27
  %49 = load ptr, ptr %7, align 8
  %50 = getelementptr inbounds nuw %struct.Wayland_KeymapBuilderState, ptr %49, i32 0, i32 0
  %51 = load ptr, ptr %50, align 8
  %52 = load i32, ptr %9, align 4
  %53 = load ptr, ptr %7, align 8
  %54 = getelementptr inbounds nuw %struct.Wayland_KeymapBuilderState, ptr %53, i32 0, i32 2
  %55 = load i16, ptr %54, align 8
  %56 = load i32, ptr %11, align 4
  call void @SDL_SetKeymapEntry(ptr noundef %51, i32 noundef %52, i16 noundef zeroext %55, i32 noundef %56)
  call void @llvm.lifetime.end.p0(i64 4, ptr %11) #10
  br label %57

57:                                               ; preds = %48, %19
  store i32 0, ptr %10, align 4
  br label %58

58:                                               ; preds = %57, %18
  call void @llvm.lifetime.end.p0(i64 4, ptr %9) #10
  call void @llvm.lifetime.end.p0(i64 8, ptr %8) #10
  call void @llvm.lifetime.end.p0(i64 8, ptr %7) #10
  %59 = load i32, ptr %10, align 4
  switch i32 %59, label %61 [
    i32 0, label %60
    i32 1, label %60
  ]

60:                                               ; preds = %58, %58
  ret void

61:                                               ; preds = %58
  unreachable
}