; Function Attrs: nounwind uwtable
define internal void @Wayland_keymap_iter(ptr readnone captures(none) %0, i32 noundef %1, ptr noundef readonly captures(none) %2) #0 {
  %4 = alloca ptr, align 8
  call void @llvm.lifetime.start.p0(i64 8, ptr nonnull %4) #12
  %5 = add i32 %1, -8
  %6 = tail call i32 @SDL_GetScancodeFromTable(i32 noundef 3, i32 noundef %5) #12
  %7 = icmp eq i32 %6, 0
  br i1 %7, label %29, label %8

8:                                                ; preds = %3
  %9 = load ptr, ptr @WAYLAND_xkb_state_key_get_syms, align 8
  %10 = getelementptr inbounds nuw i8, ptr %2, i64 8
  %11 = load ptr, ptr %10, align 8
  %12 = call i32 %9(ptr noundef %11, i32 noundef %1, ptr noundef nonnull %4) #12
  %13 = icmp sgt i32 %12, 0
  br i1 %13, label %14, label %29

14:                                               ; preds = %8
  %15 = load ptr, ptr %4, align 8
  %16 = load i32, ptr %15, align 4
  %17 = getelementptr inbounds nuw i8, ptr %2, i64 16
  %18 = load i16, ptr %17, align 8
  %19 = call i32 @SDL_GetKeyCodeFromKeySym(i32 noundef %16, i32 noundef %1, i16 noundef zeroext %18) #12
  %.not = icmp eq i32 %19, 0
  br i1 %.not, label %20, label %26

20:                                               ; preds = %14
  switch i32 %6, label %24 [
    i32 40, label %26
    i32 41, label %21
    i32 42, label %22
    i32 76, label %23
  ]

21:                                               ; preds = %20
  br label %26

22:                                               ; preds = %20
  br label %26

23:                                               ; preds = %20
  br label %26

24:                                               ; preds = %20
  %25 = or i32 %6, 1073741824
  br label %26

26:                                               ; preds = %20, %21, %22, %23, %24, %14
  %.0 = phi i32 [ %19, %14 ], [ %25, %24 ], [ 127, %23 ], [ 8, %22 ], [ 27, %21 ], [ 13, %20 ]
  %27 = load ptr, ptr %2, align 8
  %28 = load i16, ptr %17, align 8
  call void @SDL_SetKeymapEntry(ptr noundef %27, i32 noundef %6, i16 noundef zeroext %28, i32 noundef %.0) #12
  br label %29

29:                                               ; preds = %8, %26, %3
  call void @llvm.lifetime.end.p0(i64 8, ptr nonnull %4) #12
  ret void
}